; Function Attrs: mustprogress uwtable
define hidden void @_ZN4cvc58internal6theory11quantifiers15SygusEnumerator20TermEnumMasterInterpC2ENS0_8TypeNodeEm(ptr noundef nonnull align 8 dereferenceable(56) %this, ptr nocapture noundef readonly %tn, i64 noundef %numConstants) unnamed_addr #3 align 2 personality ptr @__gxx_personality_v0 {
entry:
  %agg.tmp = alloca %"class.cvc5::internal::TypeNode", align 8
  store ptr getelementptr inbounds ({ [6 x ptr] }, ptr @_ZTVN4cvc58internal6theory11quantifiers15SygusEnumerator8TermEnumE, i64 0, i32 0, i64 2), ptr %this, align 8
  %d_se.i = getelementptr inbounds i8, ptr %this, i64 8
  store ptr null, ptr %d_se.i, align 8
  %0 = load atomic i8, ptr @_ZGVZN4cvc58internal4expr9NodeValue4nullEvE6s_null acquire, align 8
  %guard.uninitialized.i.i.i = icmp eq i8 %0, 0
  br i1 %guard.uninitialized.i.i.i, label %init.check.i.i.i, label %_ZN4cvc58internal6theory11quantifiers15SygusEnumerator8TermEnumC2Ev.exit, !prof !4

init.check.i.i.i:                                 ; preds = %entry
  %1 = tail call i32 @__cxa_guard_acquire(ptr nonnull @_ZGVZN4cvc58internal4expr9NodeValue4nullEvE6s_null) #22
  %tobool.not.i.i.i = icmp eq i32 %1, 0
  br i1 %tobool.not.i.i.i, label %_ZN4cvc58internal6theory11quantifiers15SygusEnumerator8TermEnumC2Ev.exit, label %init.i.i.i

init.i.i.i:                                       ; preds = %init.check.i.i.i
  %call.i.i.i = invoke noalias noundef nonnull dereferenceable(16) ptr @_Znwm(i64 noundef 16) #23
          to label %invoke.cont.i.i.i unwind label %lpad.i.i.i

invoke.cont.i.i.i:                                ; preds = %init.i.i.i
  store i64 1152920405095219200, ptr %call.i.i.i, align 8
  %d_kind.i.i.i.i = getelementptr inbounds i8, ptr %call.i.i.i, i64 8
  store i16 0, ptr %d_kind.i.i.i.i, align 8
  %d_nchildren.i.i.i.i = getelementptr inbounds i8, ptr %call.i.i.i, i64 12
  store i32 0, ptr %d_nchildren.i.i.i.i, align 4
  store ptr %call.i.i.i, ptr @_ZZN4cvc58internal4expr9NodeValue4nullEvE6s_null, align 8
  tail call void @__cxa_guard_release(ptr nonnull @_ZGVZN4cvc58internal4expr9NodeValue4nullEvE6s_null) #22
  br label %_ZN4cvc58internal6theory11quantifiers15SygusEnumerator8TermEnumC2Ev.exit

common.resume:                                    ; preds = %ehcleanup, %lpad.i.i.i
  %common.resume.op = phi { ptr, i32 } [ %2, %lpad.i.i.i ], [ %.pn, %ehcleanup ]
  resume { ptr, i32 } %common.resume.op

lpad.i.i.i:                                       ; preds = %init.i.i.i
  %2 = landingpad { ptr, i32 }
          cleanup
  tail call void @__cxa_guard_abort(ptr nonnull @_ZGVZN4cvc58internal4expr9NodeValue4nullEvE6s_null) #22
  br label %common.resume

_ZN4cvc58internal6theory11quantifiers15SygusEnumerator8TermEnumC2Ev.exit: ; preds = %entry, %init.check.i.i.i, %invoke.cont.i.i.i
  %d_tn.i = getelementptr inbounds i8, ptr %this, i64 16
  %3 = load ptr, ptr @_ZZN4cvc58internal4expr9NodeValue4nullEvE6s_null, align 8
  store ptr %3, ptr %d_tn.i, align 8
  %d_currSize.i = getelementptr inbounds i8, ptr %this, i64 24
  store i32 0, ptr %d_currSize.i, align 8
  store ptr getelementptr inbounds ({ [6 x ptr] }, ptr @_ZTVN4cvc58internal6theory11quantifiers15SygusEnumerator20TermEnumMasterInterpE, i64 0, i32 0, i64 2), ptr %this, align 8
  %4 = load ptr, ptr %tn, align 8
  store ptr %4, ptr %agg.tmp, align 8
  %bf.load.i.i = load i64, ptr %4, align 8
  %bf.lshr.i.i = lshr i64 %bf.load.i.i, 40
  %5 = trunc i64 %bf.lshr.i.i to i32
  %bf.cast.i.i = and i32 %5, 1048575
  %cmp.i.i = icmp ult i32 %bf.cast.i.i, 1048574
  br i1 %cmp.i.i, label %if.then.i.i, label %if.else.i.i

if.then.i.i:                                      ; preds = %_ZN4cvc58internal6theory11quantifiers15SygusEnumerator8TermEnumC2Ev.exit
  %bf.value.i.i = add i64 %bf.load.i.i, 1099511627776
  %bf.shl.i.i = and i64 %bf.value.i.i, 1152920405095219200
  %bf.clear7.i.i = and i64 %bf.load.i.i, -1152920405095219201
  %bf.set.i.i = or disjoint i64 %bf.shl.i.i, %bf.clear7.i.i
  store i64 %bf.set.i.i, ptr %4, align 8
  br label %invoke.cont

if.else.i.i:                                      ; preds = %_ZN4cvc58internal6theory11quantifiers15SygusEnumerator8TermEnumC2Ev.exit
  %cmp12.i.i = icmp eq i32 %bf.cast.i.i, 1048574
  br i1 %cmp12.i.i, label %if.then13.i.i, label %invoke.cont

if.then13.i.i:                                    ; preds = %if.else.i.i
  %bf.set23.i.i = or i64 %bf.load.i.i, 1152920405095219200
  store i64 %bf.set23.i.i, ptr %4, align 8
  invoke void @_ZN4cvc58internal4expr9NodeValue20markRefCountMaxedOutEv(ptr noundef nonnull align 8 dereferenceable(16) %4)
          to label %invoke.cont unwind label %lpad

invoke.cont:                                      ; preds = %if.else.i.i, %if.then.i.i, %if.then13.i.i
  %d_te = getelementptr inbounds i8, ptr %this, i64 32
  invoke void @_ZN4cvc58internal6theory14TypeEnumeratorC2ENS0_8TypeNodeEPNS1_24TypeEnumeratorPropertiesE(ptr noundef nonnull align 8 dereferenceable(8) %d_te, ptr noundef nonnull %agg.tmp, ptr noundef null)
          to label %invoke.cont3 unwind label %lpad2

invoke.cont3:                                     ; preds = %invoke.cont
  %6 = load ptr, ptr %agg.tmp, align 8
  %bf.load.i.i2 = load i64, ptr %6, align 8
  %7 = and i64 %bf.load.i.i2, 1152920405095219200
  %cmp.not.i.i = icmp eq i64 %7, 1152920405095219200
  br i1 %cmp.not.i.i, label %_ZN4cvc58internal8TypeNodeD2Ev.exit, label %if.then.i.i3

if.then.i.i3:                                     ; preds = %invoke.cont3
  %bf.value.i.i4 = add i64 %bf.load.i.i2, 1152920405095219200
  %bf.shl.i.i5 = and i64 %bf.value.i.i4, 1152920405095219200
  %bf.clear7.i.i6 = and i64 %bf.load.i.i2, -1152920405095219201
  %bf.set.i.i7 = or disjoint i64 %bf.shl.i.i5, %bf.clear7.i.i6
  store i64 %bf.set.i.i7, ptr %6, align 8
  %cmp12.i.i8 = icmp eq i64 %bf.shl.i.i5, 0
  br i1 %cmp12.i.i8, label %if.then13.i.i9, label %_ZN4cvc58internal8TypeNodeD2Ev.exit

if.then13.i.i9:                                   ; preds = %if.then.i.i3
  invoke void @_ZN4cvc58internal4expr9NodeValue15markForDeletionEv(ptr noundef nonnull align 8 dereferenceable(16) %6)
          to label %_ZN4cvc58internal8TypeNodeD2Ev.exit unwind label %terminate.lpad.i

terminate.lpad.i:                                 ; preds = %if.then13.i.i9
  %8 = landingpad { ptr, i32 }
          catch ptr null
  %9 = extractvalue { ptr, i32 } %8, 0
  call void @__clang_call_terminate(ptr %9) #24
  unreachable

_ZN4cvc58internal8TypeNodeD2Ev.exit:              ; preds = %invoke.cont3, %if.then.i.i3, %if.then13.i.i9
  %d_currNumConsts = getelementptr inbounds i8, ptr %this, i64 40
  store i32 0, ptr %d_currNumConsts, align 8
  %d_nextIndexEnd = getelementptr inbounds i8, ptr %this, i64 44
  store i32 0, ptr %d_nextIndexEnd, align 4
  %d_enumNumConsts = getelementptr inbounds i8, ptr %this, i64 48
  store i64 %numConstants, ptr %d_enumNumConsts, align 8
  ret void

lpad:                                             ; preds = %if.then13.i.i
  %10 = landingpad { ptr, i32 }
          cleanup
  br label %ehcleanup

lpad2:                                            ; preds = %invoke.cont
  %11 = landingpad { ptr, i32 }
          cleanup
  call void @_ZN4cvc58internal8TypeNodeD2Ev(ptr noundef nonnull align 8 dereferenceable(8) %agg.tmp) #22
  br label %ehcleanup

ehcleanup:                                        ; preds = %lpad2, %lpad
  %.pn = phi { ptr, i32 } [ %11, %lpad2 ], [ %10, %lpad ]
  call void @_ZN4cvc58internal6theory11quantifiers15SygusEnumerator8TermEnumD2Ev(ptr noundef nonnull align 8 dereferenceable(28) %this) #22
  br label %common.resume
}